; Function Attrs: null_pointer_is_valid sspstrong uwtable
define internal noundef zeroext i16 @gmr1_ie_rr_persistence_lvl(ptr noundef %0, ptr noundef %1, ptr readnone captures(none) %2, i32 noundef %3, i32 %4, ptr readnone captures(none) %5, i32 %6) #1 {
  br label %8

8:                                                ; preds = %7, %8
  %indvars.iv = phi i64 [ 0, %7 ], [ %indvars.iv.next, %8 ]
  %9 = getelementptr [4 x i32], ptr @hf_rr_persistence_lvl, i64 0, i64 %indvars.iv
  %10 = load i32, ptr %9, align 4
  %11 = trunc nuw nsw i64 %indvars.iv to i32
  %12 = lshr i32 %11, 1
  %13 = add i32 %12, %3
  %14 = tail call ptr @proto_tree_add_item(ptr noundef %1, i32 noundef %10, ptr noundef %0, i32 noundef %13, i32 noundef 1, i32 noundef 0)
  %indvars.iv.next = add nuw nsw i64 %indvars.iv, 1
  %exitcond.not = icmp eq i64 %indvars.iv.next, 4
  br i1 %exitcond.not, label %15, label %8, !llvm.loop !9

15:                                               ; preds = %8
  ret i16 2
}